target datalayout = "e-m:e-p270:32:32-p271:32:32-p272:64:64-i64:64-i128:128-f80:128-n8:16:32:64-S128"
target triple = "x86_64-pc-linux-gnu"

%"struct.clang::TerminalColor" = type { i32, i8 }
%"class.clang::TextNodeDumper" = type { %"class.clang::TextTreeStructure", ptr, i8, ptr, i32, ptr, ptr, %"struct.clang::PrintingPolicy", ptr }
%"class.clang::TextTreeStructure" = type { ptr, i8, %"class.llvm::SmallVector", i8, i8, %"class.std::__cxx11::basic_string" }
%"class.llvm::SmallVector" = type { %"class.llvm::SmallVectorImpl", %"struct.llvm::SmallVectorStorage" }
%"class.llvm::SmallVectorImpl" = type { %"class.llvm::SmallVectorTemplateBase" }
%"class.llvm::SmallVectorTemplateBase" = type { %"class.llvm::SmallVectorTemplateCommon" }
%"class.llvm::SmallVectorTemplateCommon" = type { %"class.llvm::SmallVectorBase" }
%"class.llvm::SmallVectorBase" = type { ptr, i32, i32 }
%"struct.llvm::SmallVectorStorage" = type { [1024 x i8] }
%"class.std::__cxx11::basic_string" = type { %"struct.std::__cxx11::basic_string<char>::_Alloc_hider", i64, %union.anon }
%"struct.std::__cxx11::basic_string<char>::_Alloc_hider" = type { ptr }
%union.anon = type { i64, [8 x i8] }
%"struct.clang::PrintingPolicy" = type { i64, ptr }
%"class.clang::ColorScope" = type <{ ptr, i8, [7 x i8] }>
%"class.clang::SourceLocation" = type { i32 }
%"struct.llvm::detail::PunnedPointer.450" = type { [8 x i8] }
%"class.llvm::raw_ostream" = type { ptr, i32, ptr, ptr, ptr, i8, i32 }
%"class.llvm::PointerIntPair.445" = type { %"struct.llvm::detail::PunnedPointer.446" }
%"struct.llvm::detail::PunnedPointer.446" = type { [8 x i8] }
%"class.llvm::PointerUnion" = type { %"class.llvm::pointer_union_detail::PointerUnionMembers" }
%"class.llvm::pointer_union_detail::PointerUnionMembers" = type { %"class.llvm::pointer_union_detail::PointerUnionMembers.447" }
%"class.llvm::pointer_union_detail::PointerUnionMembers.447" = type { %"class.llvm::pointer_union_detail::PointerUnionMembers.448" }
%"class.llvm::pointer_union_detail::PointerUnionMembers.448" = type { %"class.llvm::PointerIntPair.449" }
%"class.llvm::PointerIntPair.449" = type { %"struct.llvm::detail::PunnedPointer.450" }
%"class.clang::DeclarationName" = type { i64 }
%"class.clang::NamedDecl" = type { %"class.clang::Decl.base", %"class.clang::DeclarationName" }
%"class.clang::Decl.base" = type <{ ptr, %"class.llvm::PointerIntPair.445", %"class.llvm::PointerUnion", %"class.clang::SourceLocation", i32, i8 }>

@_ZN5clangL13DeclNameColorE = internal constant %"struct.clang::TerminalColor" { i32 6, i8 1 }, align 4

; Function Attrs: mustprogress nounwind uwtable
define linkonce_odr hidden noundef i32 @_ZNK5clang15DeclarationName17getStoredNameKindEv(ptr noundef nonnull align 8 dereferenceable(8) %0) #0 comdat align 2 {
  %2 = alloca ptr, align 8
  store ptr %0, ptr %2, align 8
  %3 = load ptr, ptr %2, align 8
  %4 = getelementptr inbounds nuw %"class.clang::DeclarationName", ptr %3, i32 0, i32 0
  %5 = load i64, ptr %4, align 8
  %6 = and i64 %5, 7
  %7 = trunc i64 %6 to i32
  ret i32 %7
}

; Function Attrs: mustprogress nounwind uwtable
define linkonce_odr hidden noundef ptr @_ZNK5clang15DeclarationName6getPtrEv(ptr noundef nonnull align 8 dereferenceable(8) %0) #0 comdat align 2 {
  %2 = alloca ptr, align 8
  store ptr %0, ptr %2, align 8
  %3 = load ptr, ptr %2, align 8
  %4 = getelementptr inbounds nuw %"class.clang::DeclarationName", ptr %3, i32 0, i32 0
  %5 = load i64, ptr %4, align 8
  %6 = and i64 %5, -8
  %7 = inttoptr i64 %6 to ptr
  ret ptr %7
}

; Function Attrs: mustprogress nounwind uwtable
define linkonce_odr hidden void @_ZN5clang10ColorScopeD2Ev(ptr noundef nonnull align 8 dereferenceable(9) %0) unnamed_addr #0 comdat align 2 {
  %2 = alloca ptr, align 8
  store ptr %0, ptr %2, align 8
  %3 = load ptr, ptr %2, align 8
  %4 = getelementptr inbounds nuw %"class.clang::ColorScope", ptr %3, i32 0, i32 1
  %5 = load i8, ptr %4, align 8
  %6 = trunc i8 %5 to i1
  br i1 %6, label %7, label %14

7:                                                ; preds = %1
  %8 = getelementptr inbounds nuw %"class.clang::ColorScope", ptr %3, i32 0, i32 0
  %9 = load ptr, ptr %8, align 8
  %10 = load ptr, ptr %9, align 8
  %11 = getelementptr inbounds ptr, ptr %10, i64 4
  %12 = load ptr, ptr %11, align 8
  %13 = call noundef nonnull align 8 dereferenceable(48) ptr %12(ptr noundef nonnull align 8 dereferenceable(48) %9)
  br label %14

14:                                               ; preds = %7, %1
  ret void
}

; Function Attrs: mustprogress nounwind uwtable
define linkonce_odr hidden noundef nonnull align 8 dereferenceable(48) ptr @_ZN4llvm11raw_ostreamlsEc(ptr noundef nonnull align 8 dereferenceable(48) %0, i8 noundef signext %1) #0 comdat align 2 {
  %3 = alloca ptr, align 8
  %4 = alloca ptr, align 8
  %5 = alloca i8, align 1
  store ptr %0, ptr %4, align 8
  store i8 %1, ptr %5, align 1
  %6 = load ptr, ptr %4, align 8
  %7 = getelementptr inbounds nuw %"class.llvm::raw_ostream", ptr %6, i32 0, i32 4
  %8 = load ptr, ptr %7, align 8
  %9 = getelementptr inbounds nuw %"class.llvm::raw_ostream", ptr %6, i32 0, i32 3
  %10 = load ptr, ptr %9, align 8
  %11 = icmp uge ptr %8, %10
  br i1 %11, label %12, label %15

12:                                               ; preds = %2
  %13 = load i8, ptr %5, align 1
  %14 = call noundef nonnull align 8 dereferenceable(48) ptr @_ZN4llvm11raw_ostream5writeEh(ptr noundef nonnull align 8 dereferenceable(48) %6, i8 noundef zeroext %13)
  store ptr %14, ptr %3, align 8
  br label %20

15:                                               ; preds = %2
  %16 = load i8, ptr %5, align 1
  %17 = getelementptr inbounds nuw %"class.llvm::raw_ostream", ptr %6, i32 0, i32 4
  %18 = load ptr, ptr %17, align 8
  %19 = getelementptr inbounds i8, ptr %18, i32 1
  store ptr %19, ptr %17, align 8
  store i8 %16, ptr %18, align 1
  store ptr %6, ptr %3, align 8
  br label %20

20:                                               ; preds = %15, %12
  %21 = load ptr, ptr %3, align 8
  ret ptr %21
}

; Function Attrs: mustprogress nounwind uwtable
define linkonce_odr hidden void @_ZN5clang10ColorScopeC2ERN4llvm11raw_ostreamEbNS_13TerminalColorE(ptr noundef nonnull align 8 dereferenceable(9) %0, ptr noundef nonnull align 8 dereferenceable(48) %1, i1 noundef zeroext %2, i64 %3) unnamed_addr #0 comdat align 2 {
  %5 = alloca %"struct.clang::TerminalColor", align 4
  %6 = alloca ptr, align 8
  %7 = alloca ptr, align 8
  %8 = alloca i8, align 1
  store i64 %3, ptr %5, align 4
  store ptr %0, ptr %6, align 8
  store ptr %1, ptr %7, align 8
  %9 = zext i1 %2 to i8
  store i8 %9, ptr %8, align 1
  %10 = load ptr, ptr %6, align 8
  %11 = getelementptr inbounds nuw %"class.clang::ColorScope", ptr %10, i32 0, i32 0
  %12 = load ptr, ptr %7, align 8
  store ptr %12, ptr %11, align 8
  %13 = getelementptr inbounds nuw %"class.clang::ColorScope", ptr %10, i32 0, i32 1
  %14 = load i8, ptr %8, align 1
  %15 = trunc i8 %14 to i1
  %16 = zext i1 %15 to i8
  store i8 %16, ptr %13, align 8
  %17 = load i8, ptr %8, align 1
  %18 = trunc i8 %17 to i1
  br i1 %18, label %19, label %30

19:                                               ; preds = %4
  %20 = load ptr, ptr %7, align 8
  %21 = getelementptr inbounds nuw %"struct.clang::TerminalColor", ptr %5, i32 0, i32 0
  %22 = load i32, ptr %21, align 4
  %23 = getelementptr inbounds nuw %"struct.clang::TerminalColor", ptr %5, i32 0, i32 1
  %24 = load i8, ptr %23, align 4
  %25 = trunc i8 %24 to i1
  %26 = load ptr, ptr %20, align 8
  %27 = getelementptr inbounds ptr, ptr %26, i64 3
  %28 = load ptr, ptr %27, align 8
  %29 = call noundef nonnull align 8 dereferenceable(48) ptr %28(ptr noundef nonnull align 8 dereferenceable(48) %20, i32 noundef %22, i1 noundef zeroext %25, i1 noundef zeroext false)
  br label %30

30:                                               ; preds = %19, %4
  ret void
}

; Function Attrs: mustprogress nounwind uwtable
define linkonce_odr hidden noundef zeroext i1 @_ZNK5clang15DeclarationNamecvbEv(ptr noundef nonnull align 8 dereferenceable(8) %0) #0 comdat align 2 {
  %2 = alloca ptr, align 8
  store ptr %0, ptr %2, align 8
  %3 = load ptr, ptr %2, align 8
  %4 = call noundef ptr @_ZNK5clang15DeclarationName6getPtrEv(ptr noundef nonnull align 8 dereferenceable(8) %3)
  %5 = icmp ne ptr %4, null
  br i1 %5, label %9, label %6

6:                                                ; preds = %1
  %7 = call noundef i32 @_ZNK5clang15DeclarationName17getStoredNameKindEv(ptr noundef nonnull align 8 dereferenceable(8) %3)
  %8 = icmp ne i32 %7, 0
  br label %9

9:                                                ; preds = %6, %1
  %10 = phi i1 [ true, %1 ], [ %8, %6 ]
  ret i1 %10
}

; Function Attrs: mustprogress nounwind uwtable
define linkonce_odr hidden i64 @_ZNK5clang9NamedDecl11getDeclNameEv(ptr noundef nonnull align 8 dereferenceable(48) %0) #0 comdat align 2 {
  %2 = alloca %"class.clang::DeclarationName", align 8
  %3 = alloca ptr, align 8
  store ptr %0, ptr %3, align 8
  %4 = load ptr, ptr %3, align 8
  %5 = getelementptr inbounds nuw %"class.clang::NamedDecl", ptr %4, i32 0, i32 1
  call void @llvm.memcpy.p0.p0.i64(ptr align 8 %2, ptr align 8 %5, i64 8, i1 false)
  %6 = getelementptr inbounds nuw %"class.clang::DeclarationName", ptr %2, i32 0, i32 0
  %7 = load i64, ptr %6, align 8
  ret i64 %7
}

; Function Attrs: mustprogress nounwind uwtable
define dso_local void @_ZN5clang14TextNodeDumper8dumpNameEPKNS_9NamedDeclE(ptr noundef nonnull align 8 dereferenceable(1168) %0, ptr noundef %1) #0 align 2 {
  %3 = alloca ptr, align 8
  %4 = alloca ptr, align 8
  %5 = alloca %"class.clang::DeclarationName", align 8
  %6 = alloca %"class.clang::ColorScope", align 8
  %7 = alloca %"struct.clang::TerminalColor", align 4
  %8 = alloca %"class.clang::DeclarationName", align 8
  store ptr %0, ptr %3, align 8
  store ptr %1, ptr %4, align 8
  %9 = load ptr, ptr %3, align 8
  %10 = load ptr, ptr %4, align 8
  %11 = call i64 @_ZNK5clang9NamedDecl11getDeclNameEv(ptr noundef nonnull align 8 dereferenceable(48) %10)
  %12 = getelementptr inbounds nuw %"class.clang::DeclarationName", ptr %5, i32 0, i32 0
  store i64 %11, ptr %12, align 8
  %13 = call noundef zeroext i1 @_ZNK5clang15DeclarationNamecvbEv(ptr noundef nonnull align 8 dereferenceable(8) %5)
  br i1 %13, label %14, label %30

14:                                               ; preds = %2
  %15 = getelementptr inbounds nuw %"class.clang::TextNodeDumper", ptr %9, i32 0, i32 1
  %16 = load ptr, ptr %15, align 8
  %17 = getelementptr inbounds nuw %"class.clang::TextNodeDumper", ptr %9, i32 0, i32 2
  %18 = load i8, ptr %17, align 8
  %19 = trunc i8 %18 to i1
  call void @llvm.memcpy.p0.p0.i64(ptr align 4 %7, ptr align 4 @_ZN5clangL13DeclNameColorE, i64 8, i1 false)
  %20 = load i64, ptr %7, align 4
  call void @_ZN5clang10ColorScopeC2ERN4llvm11raw_ostreamEbNS_13TerminalColorE(ptr noundef nonnull align 8 dereferenceable(9) %6, ptr noundef nonnull align 8 dereferenceable(48) %16, i1 noundef zeroext %19, i64 %20)
  %21 = getelementptr inbounds nuw %"class.clang::TextNodeDumper", ptr %9, i32 0, i32 1
  %22 = load ptr, ptr %21, align 8
  %23 = call noundef nonnull align 8 dereferenceable(48) ptr @_ZN4llvm11raw_ostreamlsEc(ptr noundef nonnull align 8 dereferenceable(48) %22, i8 noundef signext 32)
  %24 = load ptr, ptr %4, align 8
  %25 = call i64 @_ZNK5clang9NamedDecl11getDeclNameEv(ptr noundef nonnull align 8 dereferenceable(48) %24)
  %26 = getelementptr inbounds nuw %"class.clang::DeclarationName", ptr %8, i32 0, i32 0
  store i64 %25, ptr %26, align 8
  %27 = getelementptr inbounds nuw %"class.clang::DeclarationName", ptr %8, i32 0, i32 0
  %28 = load i64, ptr %27, align 8
  %29 = call noundef nonnull align 8 dereferenceable(48) ptr @_ZN5clanglsERN4llvm11raw_ostreamENS_15DeclarationNameE(ptr noundef nonnull align 8 dereferenceable(48) %23, i64 %28)
  call void @_ZN5clang10ColorScopeD2Ev(ptr noundef nonnull align 8 dereferenceable(9) %6) #14
  br label %30

30:                                               ; preds = %14, %2
  ret void
}